target datalayout = "e-m:e-p270:32:32-p271:32:32-p272:64:64-i64:64-i128:128-f80:128-n8:16:32:64-S128"
target triple = "x86_64-unknown-linux-gnu"

%"struct.std::_Rb_tree_header" = type { %"struct.std::_Rb_tree_node_base", i64 }
%"struct.std::_Rb_tree_node_base" = type { i32, ptr, ptr, ptr }
%"class.std::__cxx11::basic_string" = type { %"struct.std::__cxx11::basic_string<char>::_Alloc_hider", i64, %union.anon.3 }
%"struct.std::__cxx11::basic_string<char>::_Alloc_hider" = type { ptr }
%union.anon.3 = type { i64, [8 x i8] }
%"class.rocksdb::Slice" = type { ptr, i64 }
%"class.rocksdb::AnalyzerOptions" = type { %"class.std::vector.28", %"class.std::vector.33" }
%"class.std::vector.28" = type { %"struct.std::_Vector_base.29" }
%"struct.std::_Vector_base.29" = type { %"struct.std::_Vector_base<std::vector<int>, std::allocator<std::vector<int>>>::_Vector_impl" }
%"struct.std::_Vector_base<std::vector<int>, std::allocator<std::vector<int>>>::_Vector_impl" = type { %"struct.std::_Vector_base<std::vector<int>, std::allocator<std::vector<int>>>::_Vector_impl_data" }
%"struct.std::_Vector_base<std::vector<int>, std::allocator<std::vector<int>>>::_Vector_impl_data" = type { ptr, ptr, ptr }
%"class.std::vector.33" = type { %"struct.std::_Vector_base.34" }
%"struct.std::_Vector_base.34" = type { %"struct.std::_Vector_base<std::pair<int, int>, std::allocator<std::pair<int, int>>>::_Vector_impl" }
%"struct.std::_Vector_base<std::pair<int, int>, std::allocator<std::pair<int, int>>>::_Vector_impl" = type { %"struct.std::_Vector_base<std::pair<int, int>, std::allocator<std::pair<int, int>>>::_Vector_impl_data" }
%"struct.std::_Vector_base<std::pair<int, int>, std::allocator<std::pair<int, int>>>::_Vector_impl_data" = type { ptr, ptr, ptr }
%"struct.std::_Rb_tree_key_compare.63" = type { %"struct.std::less.64" }
%"struct.std::less.64" = type { i8 }
%"class.std::unique_ptr" = type { %"struct.std::__uniq_ptr_data" }
%"struct.std::__uniq_ptr_data" = type { %"class.std::__uniq_ptr_impl" }
%"class.std::__uniq_ptr_impl" = type { %"class.std::tuple" }
%"class.std::tuple" = type { %"struct.std::_Tuple_impl" }
%"struct.std::_Tuple_impl" = type { %"struct.std::_Head_base.109" }
%"struct.std::_Head_base.109" = type { ptr }
%"struct.rocksdb::EnvOptions" = type { i8, i8, i8, i8, i8, i8, i64, i8, i8, i64, i64, i64, ptr }
%"class.rocksdb::TraceAnalyzer" = type <{ %"class.rocksdb::TraceRecord::Handler", %"class.rocksdb::WriteBatch::Handler", ptr, %"struct.rocksdb::EnvOptions", %"class.std::unique_ptr.110", i64, [1024 x i8], i64, %"class.std::__cxx11::basic_string", %"class.std::__cxx11::basic_string", %"class.rocksdb::AnalyzerOptions", i64, i64, i64, i64, i64, i64, i64, i64, i64, i64, i64, i32, i32, %"class.std::unique_ptr", %"class.std::unique_ptr", %"class.std::unique_ptr", %"class.std::vector.118", %"class.std::map.123", %"class.std::vector.128", %"class.std::vector.133", i32, [4 x i8] }>
%"class.rocksdb::TraceRecord::Handler" = type { ptr }
%"class.rocksdb::WriteBatch::Handler" = type { ptr }
%"class.std::unique_ptr.110" = type { %"struct.std::__uniq_ptr_data.111" }
%"struct.std::__uniq_ptr_data.111" = type { %"class.std::__uniq_ptr_impl.112" }
%"class.std::__uniq_ptr_impl.112" = type { %"class.std::tuple.113" }
%"class.std::tuple.113" = type { %"struct.std::_Tuple_impl.114" }
%"struct.std::_Tuple_impl.114" = type { %"struct.std::_Head_base.117" }
%"struct.std::_Head_base.117" = type { ptr }
%"class.std::vector.118" = type { %"struct.std::_Vector_base.119" }
%"struct.std::_Vector_base.119" = type { %"struct.std::_Vector_base<rocksdb::TypeUnit, std::allocator<rocksdb::TypeUnit>>::_Vector_impl" }
%"struct.std::_Vector_base<rocksdb::TypeUnit, std::allocator<rocksdb::TypeUnit>>::_Vector_impl" = type { %"struct.std::_Vector_base<rocksdb::TypeUnit, std::allocator<rocksdb::TypeUnit>>::_Vector_impl_data" }
%"struct.std::_Vector_base<rocksdb::TypeUnit, std::allocator<rocksdb::TypeUnit>>::_Vector_impl_data" = type { ptr, ptr, ptr }
%"class.std::map.123" = type { %"class.std::_Rb_tree.124" }
%"class.std::_Rb_tree.124" = type { %"struct.std::_Rb_tree<unsigned int, std::pair<const unsigned int, rocksdb::CfUnit>, std::_Select1st<std::pair<const unsigned int, rocksdb::CfUnit>>, std::less<unsigned int>>::_Rb_tree_impl" }
%"struct.std::_Rb_tree<unsigned int, std::pair<const unsigned int, rocksdb::CfUnit>, std::_Select1st<std::pair<const unsigned int, rocksdb::CfUnit>>, std::less<unsigned int>>::_Rb_tree_impl" = type { %"struct.std::_Rb_tree_key_compare.63", %"struct.std::_Rb_tree_header" }
%"class.std::vector.128" = type { %"struct.std::_Vector_base.129" }
%"struct.std::_Vector_base.129" = type { %"struct.std::_Vector_base<unsigned int, std::allocator<unsigned int>>::_Vector_impl" }
%"struct.std::_Vector_base<unsigned int, std::allocator<unsigned int>>::_Vector_impl" = type { %"struct.std::_Vector_base<unsigned int, std::allocator<unsigned int>>::_Vector_impl_data" }
%"struct.std::_Vector_base<unsigned int, std::allocator<unsigned int>>::_Vector_impl_data" = type { ptr, ptr, ptr }
%"class.std::vector.133" = type { %"struct.std::_Vector_base.134" }
%"struct.std::_Vector_base.134" = type { %"struct.std::_Vector_base<double, std::allocator<double>>::_Vector_impl" }
%"struct.std::_Vector_base<double, std::allocator<double>>::_Vector_impl" = type { %"struct.std::_Vector_base<double, std::allocator<double>>::_Vector_impl_data" }
%"struct.std::_Vector_base<double, std::allocator<double>>::_Vector_impl_data" = type { ptr, ptr, ptr }
%"class.rocksdb::Status" = type { i8, i8, i8, i8, i8, i8, %"class.std::unique_ptr.143" }
%"class.std::unique_ptr.143" = type { %"struct.std::__uniq_ptr_data.144" }
%"struct.std::__uniq_ptr_data.144" = type { %"class.std::__uniq_ptr_impl.145" }
%"class.std::__uniq_ptr_impl.145" = type { %"class.std::tuple.146" }
%"class.std::tuple.146" = type { %"struct.std::_Tuple_impl.147" }
%"struct.std::_Tuple_impl.147" = type { %"struct.std::_Head_base.150" }
%"struct.std::_Head_base.150" = type { ptr }

; Function Attrs: mustprogress nounwind uwtable
define linkonce_odr noundef i64 @_ZNK7rocksdb5Slice4sizeEv(ptr noundef nonnull align 8 dereferenceable(16) %this) #1 comdat align 2 {
entry:
  %this.addr = alloca ptr, align 8
  store ptr %this, ptr %this.addr, align 8
  %this1 = load ptr, ptr %this.addr, align 8
  %size_ = getelementptr inbounds %"class.rocksdb::Slice", ptr %this1, i32 0, i32 1
  %0 = load i64, ptr %size_, align 8
  ret i64 %0
}

; Function Attrs: mustprogress uwtable
define void @_ZN7rocksdb13TraceAnalyzer11PutEntityCFEjRKNS_5SliceES3_(ptr noalias sret(%"class.rocksdb::Status") align 8 %agg.result, ptr noundef nonnull align 8 dereferenceable(1484) %this, i32 noundef %column_family_id, ptr noundef nonnull align 8 dereferenceable(16) %key, ptr noundef nonnull align 8 dereferenceable(16) %value) unnamed_addr #0 align 2 {
entry:
  %result.ptr = alloca ptr, align 8
  %this.addr = alloca ptr, align 8
  %column_family_id.addr = alloca i32, align 4
  %key.addr = alloca ptr, align 8
  %value.addr = alloca ptr, align 8
  store ptr %agg.result, ptr %result.ptr, align 8
  store ptr %this, ptr %this.addr, align 8
  store i32 %column_family_id, ptr %column_family_id.addr, align 4
  store ptr %key, ptr %key.addr, align 8
  store ptr %value, ptr %value.addr, align 8
  %this1 = load ptr, ptr %this.addr, align 8
  %write_batch_ts_ = getelementptr inbounds %"class.rocksdb::TraceAnalyzer", ptr %this1, i32 0, i32 7
  %0 = load i64, ptr %write_batch_ts_, align 8
  %1 = load i32, ptr %column_family_id.addr, align 4
  %2 = load ptr, ptr %key.addr, align 8
  %3 = load ptr, ptr %value.addr, align 8
  %call = call noundef i64 @_ZNK7rocksdb5Slice4sizeEv(ptr noundef nonnull align 8 dereferenceable(16) %3)
  call void @_ZN7rocksdb13TraceAnalyzer20OutputAnalysisResultENS_18TraceOperationTypeEmjRKNS_5SliceEm(ptr sret(%"class.rocksdb::Status") align 8 %agg.result, ptr noundef nonnull align 8 dereferenceable(1484) %this1, i32 noundef 9, i64 noundef %0, i32 noundef %1, ptr noundef nonnull align 8 dereferenceable(16) %2, i64 noundef %call)
  ret void
}

; Function Attrs: uwtable
define void @_ZThn8_N7rocksdb13TraceAnalyzer11PutEntityCFEjRKNS_5SliceES3_(ptr noalias sret(%"class.rocksdb::Status") align 8 %agg.result, ptr noundef %this, i32 noundef %column_family_id, ptr noundef nonnull align 8 dereferenceable(16) %key, ptr noundef nonnull align 8 dereferenceable(16) %value) unnamed_addr #2 align 2 {
entry:
  %result.ptr = alloca ptr, align 8
  %this.addr = alloca ptr, align 8
  %column_family_id.addr = alloca i32, align 4
  %key.addr = alloca ptr, align 8
  %value.addr = alloca ptr, align 8
  store ptr %agg.result, ptr %result.ptr, align 8
  store ptr %this, ptr %this.addr, align 8
  store i32 %column_family_id, ptr %column_family_id.addr, align 4
  store ptr %key, ptr %key.addr, align 8
  store ptr %value, ptr %value.addr, align 8
  %this1 = load ptr, ptr %this.addr, align 8
  %0 = getelementptr inbounds i8, ptr %this1, i64 -8
  %1 = load i32, ptr %column_family_id.addr, align 4
  %2 = load ptr, ptr %key.addr, align 8
  %3 = load ptr, ptr %value.addr, align 8
  tail call void @_ZN7rocksdb13TraceAnalyzer11PutEntityCFEjRKNS_5SliceES3_(ptr sret(%"class.rocksdb::Status") align 8 %agg.result, ptr noundef nonnull align 8 dereferenceable(1484) %0, i32 noundef %1, ptr noundef nonnull align 8 dereferenceable(16) %2, ptr noundef nonnull align 8 dereferenceable(16) %3)
  ret void
}