; Function Attrs: uwtable
define void @_ZThn8_N7rocksdb13TraceAnalyzer11PutEntityCFEjRKNS_5SliceES3_(ptr noalias sret(%"class.rocksdb::Status") align 8 %agg.result, ptr noundef %this, i32 noundef %column_family_id, ptr nocapture noundef nonnull readonly align 8 dereferenceable(16) %key, ptr nocapture noundef nonnull readonly align 8 dereferenceable(16) %value) unnamed_addr #9 align 2 {
entry:
  %0 = getelementptr inbounds i8, ptr %this, i64 -8
  %write_batch_ts_.i = getelementptr inbounds i8, ptr %this, i64 1112
  %1 = load i64, ptr %write_batch_ts_.i, align 8, !noalias !153
  %size_.i.i = getelementptr inbounds i8, ptr %value, i64 8
  %2 = load i64, ptr %size_.i.i, align 8, !noalias !153
  tail call void @_ZN7rocksdb13TraceAnalyzer20OutputAnalysisResultENS_18TraceOperationTypeEmjRKNS_5SliceEm(ptr sret(%"class.rocksdb::Status") align 8 %agg.result, ptr noundef nonnull align 8 dereferenceable(1484) %0, i32 noundef 9, i64 noundef %1, i32 noundef %column_family_id, ptr noundef nonnull align 8 dereferenceable(16) %key, i64 noundef %2)
  ret void
}